target datalayout = "e-m:e-p270:32:32-p271:32:32-p272:64:64-i64:64-i128:128-f80:128-n8:16:32:64-S128"
target triple = "x86_64-pc-linux-gnu"

%struct.popup_info = type { ptr, ptr, i32, i32, ptr, ptr, ptr, %struct._GtkTreeIter, ptr, ptr, i32, i8, ptr, ptr, i32, ptr, ptr, i32, i32 }
%struct._GtkTreeIter = type { i32, ptr, ptr, ptr }

@.str.32 = private unnamed_addr constant [31 x i8] c"error getting iter from model\0A\00", align 1
@.str.33 = private unnamed_addr constant [37 x i8] c"UNKNOWN type %d given to set_fields\0A\00", align 1

; Function Attrs: nounwind uwtable
define dso_local void @popup_all_node(ptr noundef %0, ptr noundef %1, i32 noundef %2) #0 {
  %4 = alloca ptr, align 8
  %5 = alloca ptr, align 8
  %6 = alloca i32, align 4
  %7 = alloca ptr, align 8
  %8 = alloca ptr, align 8
  store ptr %0, ptr %4, align 8
  store ptr %1, ptr %5, align 8
  store i32 %2, ptr %6, align 4
  call void @llvm.lifetime.start.p0(i64 8, ptr %7) #7
  store ptr null, ptr %7, align 8
  call void @llvm.lifetime.start.p0(i64 8, ptr %8) #7
  store ptr null, ptr %8, align 8
  %9 = load ptr, ptr %4, align 8
  %10 = load ptr, ptr %5, align 8
  call void (ptr, ptr, ...) @gtk_tree_model_get(ptr noundef %9, ptr noundef %10, i32 noundef 21, ptr noundef %7, i32 noundef -1)
  %11 = load ptr, ptr %4, align 8
  %12 = load ptr, ptr %5, align 8
  call void (ptr, ptr, ...) @gtk_tree_model_get(ptr noundef %11, ptr noundef %12, i32 noundef 8, ptr noundef %8, i32 noundef -1)
  %13 = load ptr, ptr %7, align 8
  %14 = load i32, ptr %6, align 4
  %15 = load ptr, ptr %8, align 8
  call void @popup_all_node_name(ptr noundef %13, i32 noundef %14, ptr noundef %15)
  %16 = load ptr, ptr %7, align 8
  call void @g_free(ptr noundef %16)
  %17 = load ptr, ptr %8, align 8
  call void @g_free(ptr noundef %17)
  call void @llvm.lifetime.end.p0(i64 8, ptr %8) #7
  call void @llvm.lifetime.end.p0(i64 8, ptr %7) #7
  ret void
}

; Function Attrs: nounwind uwtable
define dso_local void @set_menus_node(ptr noundef %0, ptr noundef %1, ptr noundef %2, i32 noundef %3) #0 {
  %5 = alloca ptr, align 8
  %6 = alloca ptr, align 8
  %7 = alloca ptr, align 8
  %8 = alloca i32, align 4
  %9 = alloca ptr, align 8
  %10 = alloca ptr, align 8
  %11 = alloca ptr, align 8
  %12 = alloca ptr, align 8
  %13 = alloca ptr, align 8
  %14 = alloca %struct._GtkTreeIter, align 8
  %15 = alloca i32, align 4
  %16 = alloca ptr, align 8
  %17 = alloca %struct._GtkTreeIter, align 8
  store ptr %0, ptr %5, align 8
  store ptr %1, ptr %6, align 8
  store ptr %2, ptr %7, align 8
  store i32 %3, ptr %8, align 4
  call void @llvm.lifetime.start.p0(i64 8, ptr %9) #7
  %18 = load ptr, ptr %5, align 8
  store ptr %18, ptr %9, align 8
  call void @llvm.lifetime.start.p0(i64 8, ptr %10) #7
  %19 = load ptr, ptr %5, align 8
  store ptr %19, ptr %10, align 8
  call void @llvm.lifetime.start.p0(i64 8, ptr %11) #7
  %20 = load ptr, ptr %6, align 8
  store ptr %20, ptr %11, align 8
  call void @llvm.lifetime.start.p0(i64 8, ptr %12) #7
  %21 = load ptr, ptr %6, align 8
  store ptr %21, ptr %12, align 8
  %22 = load i32, ptr %8, align 4
  switch i32 %22, label %66 [
    i32 0, label %23
    i32 2, label %25
    i32 1, label %29
    i32 3, label %45
    i32 4, label %60
  ]

23:                                               ; preds = %4
  %24 = load ptr, ptr %11, align 8
  call void @make_fields_menu(ptr noundef null, ptr noundef %24, ptr noundef @display_data_node, i32 noundef 44)
  br label %72

25:                                               ; preds = %4
  %26 = load ptr, ptr %9, align 8
  %27 = load ptr, ptr %7, align 8
  %28 = load ptr, ptr %11, align 8
  call void @make_options_menu(ptr noundef %26, ptr noundef %27, ptr noundef %28, ptr noundef @options_data_node)
  br label %72

29:                                               ; preds = %4
  call void @llvm.lifetime.start.p0(i64 8, ptr %13) #7
  %30 = load ptr, ptr %9, align 8
  %31 = call ptr @gtk_tree_view_get_model(ptr noundef %30)
  store ptr %31, ptr %13, align 8
  call void @llvm.lifetime.start.p0(i64 32, ptr %14) #7
  %32 = load ptr, ptr %13, align 8
  %33 = load ptr, ptr %7, align 8
  %34 = call i32 @gtk_tree_model_get_iter(ptr noundef %32, ptr noundef %14, ptr noundef %33)
  %35 = icmp ne i32 %34, 0
  br i1 %35, label %41, label %36

36:                                               ; preds = %29
  br label %37

37:                                               ; preds = %36
  call void (ptr, i32, ptr, ...) @g_log(ptr noundef null, i32 noundef 4, ptr noundef @.str.32)
  br label %38

38:                                               ; preds = %38, %37
  br label %38, !llvm.loop !21

39:                                               ; No predecessors!
  br label %40

40:                                               ; preds = %39
  store i32 2, ptr %15, align 4
  br label %44

41:                                               ; preds = %29
  %42 = load ptr, ptr %9, align 8
  %43 = load ptr, ptr %12, align 8
  call void @highlight_grid(ptr noundef %42, i32 noundef 0, i32 noundef -2, ptr noundef %43)
  store i32 2, ptr %15, align 4
  br label %44

44:                                               ; preds = %41, %40
  call void @llvm.lifetime.end.p0(i64 32, ptr %14) #7
  call void @llvm.lifetime.end.p0(i64 8, ptr %13) #7
  br label %72

45:                                               ; preds = %4
  call void @llvm.lifetime.start.p0(i64 8, ptr %16) #7
  %46 = load ptr, ptr %9, align 8
  %47 = call ptr @gtk_tree_view_get_model(ptr noundef %46)
  store ptr %47, ptr %16, align 8
  call void @llvm.lifetime.start.p0(i64 32, ptr %17) #7
  %48 = load ptr, ptr %16, align 8
  %49 = load ptr, ptr %7, align 8
  %50 = call i32 @gtk_tree_model_get_iter(ptr noundef %48, ptr noundef %17, ptr noundef %49)
  %51 = icmp ne i32 %50, 0
  br i1 %51, label %57, label %52

52:                                               ; preds = %45
  br label %53

53:                                               ; preds = %52
  call void (ptr, i32, ptr, ...) @g_log(ptr noundef null, i32 noundef 4, ptr noundef @.str.32)
  br label %54

54:                                               ; preds = %54, %53
  br label %54, !llvm.loop !22

55:                                               ; No predecessors!
  br label %56

56:                                               ; preds = %55
  store i32 2, ptr %15, align 4
  br label %59

57:                                               ; preds = %45
  %58 = load ptr, ptr %16, align 8
  call void @popup_all_node(ptr noundef %58, ptr noundef %17, i32 noundef 8)
  store i32 2, ptr %15, align 4
  br label %59

59:                                               ; preds = %57, %56
  call void @llvm.lifetime.end.p0(i64 32, ptr %17) #7
  call void @llvm.lifetime.end.p0(i64 8, ptr %16) #7
  br label %72

60:                                               ; preds = %4
  %61 = load ptr, ptr %10, align 8
  %62 = load ptr, ptr %11, align 8
  %63 = load ptr, ptr %10, align 8
  %64 = getelementptr inbounds nuw %struct.popup_info, ptr %63, i32 0, i32 0
  %65 = load ptr, ptr %64, align 8
  call void @make_fields_menu(ptr noundef %61, ptr noundef %62, ptr noundef %65, i32 noundef 44)
  br label %72

66:                                               ; preds = %4
  br label %67

67:                                               ; preds = %66
  %68 = load i32, ptr %8, align 4
  call void (ptr, i32, ptr, ...) @g_log(ptr noundef null, i32 noundef 4, ptr noundef @.str.33, i32 noundef %68)
  br label %69

69:                                               ; preds = %69, %67
  br label %69, !llvm.loop !23

70:                                               ; No predecessors!
  br label %71

71:                                               ; preds = %70
  br label %72

72:                                               ; preds = %71, %60, %59, %44, %25, %23
  call void @llvm.lifetime.end.p0(i64 8, ptr %12) #7
  call void @llvm.lifetime.end.p0(i64 8, ptr %11) #7
  call void @llvm.lifetime.end.p0(i64 8, ptr %10) #7
  call void @llvm.lifetime.end.p0(i64 8, ptr %9) #7
  ret void
}