; Function Attrs: nounwind uwtable
define dso_local void @set_menus_node(ptr noundef %0, ptr noundef %1, ptr noundef %2, i32 noundef %3) local_unnamed_addr #0 {
  %5 = alloca ptr, align 8
  %6 = alloca ptr, align 8
  %7 = alloca %struct._GtkTreeIter, align 8
  %8 = alloca %struct._GtkTreeIter, align 8
  switch i32 %3, label %29 [
    i32 0, label %9
    i32 2, label %10
    i32 1, label %11
    i32 3, label %17
    i32 4, label %27
  ]

9:                                                ; preds = %4
  tail call void @make_fields_menu(ptr noundef null, ptr noundef %1, ptr noundef nonnull @display_data_node, i32 noundef 44) #11
  br label %31

10:                                               ; preds = %4
  tail call void @make_options_menu(ptr noundef %0, ptr noundef %2, ptr noundef %1, ptr noundef nonnull @options_data_node) #11
  br label %31

11:                                               ; preds = %4
  %12 = tail call ptr @gtk_tree_view_get_model(ptr noundef %0) #11
  call void @llvm.lifetime.start.p0(i64 32, ptr nonnull %7) #11
  %13 = call i32 @gtk_tree_model_get_iter(ptr noundef %12, ptr noundef nonnull %7, ptr noundef %2) #11
  %.not21 = icmp eq i32 %13, 0
  br i1 %.not21, label %14, label %16

14:                                               ; preds = %11
  call void (ptr, i32, ptr, ...) @g_log(ptr noundef null, i32 noundef 4, ptr noundef nonnull @.str.32) #11
  br label %15

15:                                               ; preds = %15, %14
  br label %15, !llvm.loop !21

16:                                               ; preds = %11
  call void @highlight_grid(ptr noundef %0, i32 noundef 0, i32 noundef -2, ptr noundef %1) #11
  call void @llvm.lifetime.end.p0(i64 32, ptr nonnull %7) #11
  br label %31

17:                                               ; preds = %4
  %18 = tail call ptr @gtk_tree_view_get_model(ptr noundef %0) #11
  call void @llvm.lifetime.start.p0(i64 32, ptr nonnull %8) #11
  %19 = call i32 @gtk_tree_model_get_iter(ptr noundef %18, ptr noundef nonnull %8, ptr noundef %2) #11
  %.not = icmp eq i32 %19, 0
  br i1 %.not, label %20, label %22

20:                                               ; preds = %17
  call void (ptr, i32, ptr, ...) @g_log(ptr noundef null, i32 noundef 4, ptr noundef nonnull @.str.32) #11
  br label %21

21:                                               ; preds = %21, %20
  br label %21, !llvm.loop !22

22:                                               ; preds = %17
  call void @llvm.lifetime.start.p0(i64 8, ptr nonnull %5) #11
  store ptr null, ptr %5, align 8
  call void @llvm.lifetime.start.p0(i64 8, ptr nonnull %6) #11
  store ptr null, ptr %6, align 8
  call void (ptr, ptr, ...) @gtk_tree_model_get(ptr noundef %18, ptr noundef nonnull %8, i32 noundef 21, ptr noundef nonnull %5, i32 noundef -1) #11
  call void (ptr, ptr, ...) @gtk_tree_model_get(ptr noundef %18, ptr noundef nonnull %8, i32 noundef 8, ptr noundef nonnull %6, i32 noundef -1) #11
  %23 = load ptr, ptr %5, align 8
  %24 = load ptr, ptr %6, align 8
  call void @popup_all_node_name(ptr noundef %23, i32 noundef 8, ptr noundef %24)
  %25 = load ptr, ptr %5, align 8
  call void @g_free(ptr noundef %25) #11
  %26 = load ptr, ptr %6, align 8
  call void @g_free(ptr noundef %26) #11
  call void @llvm.lifetime.end.p0(i64 8, ptr nonnull %6) #11
  call void @llvm.lifetime.end.p0(i64 8, ptr nonnull %5) #11
  call void @llvm.lifetime.end.p0(i64 32, ptr nonnull %8) #11
  br label %31

27:                                               ; preds = %4
  %28 = load ptr, ptr %0, align 8
  tail call void @make_fields_menu(ptr noundef nonnull %0, ptr noundef %1, ptr noundef %28, i32 noundef 44) #11
  br label %31

29:                                               ; preds = %4
  tail call void (ptr, i32, ptr, ...) @g_log(ptr noundef null, i32 noundef 4, ptr noundef nonnull @.str.33, i32 noundef %3) #11
  br label %30

30:                                               ; preds = %30, %29
  br label %30, !llvm.loop !23

31:                                               ; preds = %27, %22, %16, %10, %9
  ret void
}